; Function Attrs: mustprogress uwtable
define hidden noundef zeroext i1 @_ZN4cvc58internal13preprocessing6passes7BVGauss11is_bv_constENS0_12NodeTemplateILb1EEE(ptr noundef nonnull align 8 dereferenceable(64) %0, ptr noundef nonnull %1) local_unnamed_addr #3 align 2 personality ptr @__gxx_personality_v0 {
  %3 = alloca %"class.cvc5::internal::NodeTemplate", align 8
  %4 = alloca %"class.cvc5::internal::NodeTemplate.0", align 8
  %5 = tail call noundef zeroext i1 @_ZNK4cvc58internal12NodeTemplateILb1EE7isConstEv(ptr noundef nonnull align 8 dereferenceable(8) %1)
  br i1 %5, label %25, label %6

6:                                                ; preds = %2
  call void @llvm.lifetime.start.p0(i64 8, ptr nonnull %3) #19
  %7 = load ptr, ptr %1, align 8, !tbaa !3
  store ptr %7, ptr %4, align 8, !tbaa !9
  call void @_ZNK4cvc58internal6EnvObj7rewriteENS0_12NodeTemplateILb0EEE(ptr dead_on_unwind nonnull writable sret(%"class.cvc5::internal::NodeTemplate") align 8 %3, ptr noundef nonnull align 8 dereferenceable(16) %0, ptr noundef nonnull %4)
  %8 = load ptr, ptr %3, align 8, !tbaa !3
  %9 = getelementptr inbounds nuw i8, ptr %8, i64 8
  %10 = load i64, ptr %9, align 8
  %11 = and i64 %10, 1023
  %12 = icmp eq i64 %11, 88
  %13 = load i64, ptr %8, align 8
  %14 = and i64 %13, 1152920405095219200
  %.not.i.i = icmp eq i64 %14, 1152920405095219200
  br i1 %.not.i.i, label %_ZN4cvc58internal12NodeTemplateILb1EED2Ev.exit, label %15, !prof !11

15:                                               ; preds = %6
  %16 = add i64 %13, 1152920405095219200
  %17 = and i64 %16, 1152920405095219200
  %18 = and i64 %13, -1152920405095219201
  %19 = or disjoint i64 %17, %18
  store i64 %19, ptr %8, align 8
  %20 = icmp eq i64 %17, 0
  br i1 %20, label %21, label %_ZN4cvc58internal12NodeTemplateILb1EED2Ev.exit, !prof !11

21:                                               ; preds = %15
  invoke void @_ZN4cvc58internal4expr9NodeValue15markForDeletionEv(ptr noundef nonnull align 8 dereferenceable(24) %8)
          to label %_ZN4cvc58internal12NodeTemplateILb1EED2Ev.exit unwind label %22

22:                                               ; preds = %21
  %23 = landingpad { ptr, i32 }
          catch ptr null
  %24 = extractvalue { ptr, i32 } %23, 0
  call void @__clang_call_terminate(ptr %24) #20
  unreachable

_ZN4cvc58internal12NodeTemplateILb1EED2Ev.exit:   ; preds = %6, %15, %21
  call void @llvm.lifetime.end.p0(i64 8, ptr nonnull %3) #19
  br label %25

25:                                               ; preds = %2, %_ZN4cvc58internal12NodeTemplateILb1EED2Ev.exit
  %.04 = phi i1 [ %12, %_ZN4cvc58internal12NodeTemplateILb1EED2Ev.exit ], [ true, %2 ]
  ret i1 %.04
}